; Function Attrs: mustprogress uwtable
define hidden void @_ZN6google8protobuf8compiler4java27MessageBuilderLiteGenerator28GenerateCommonBuilderMethodsEPNS0_2io7PrinterE(ptr nocapture noundef nonnull readonly align 8 dereferenceable(88) %this, ptr noundef %printer) local_unnamed_addr #3 align 2 personality ptr @__gxx_personality_v0 {
entry:
  %ref.tmp = alloca %"class.std::__cxx11::basic_string", align 8
  %name_resolver_ = getelementptr inbounds i8, ptr %this, i64 24
  %0 = load ptr, ptr %name_resolver_, align 8
  %descriptor_ = getelementptr inbounds i8, ptr %this, i64 8
  %1 = load ptr, ptr %descriptor_, align 8
  call void @_ZN6google8protobuf8compiler4java17ClassNameResolver12GetClassNameB5cxx11EPKNS0_10DescriptorEb(ptr nonnull sret(%"class.std::__cxx11::basic_string") align 8 %ref.tmp, ptr noundef nonnull align 8 dereferenceable(112) %0, ptr noundef %1, i1 noundef zeroext true)
  invoke void @_ZN6google8protobuf2io7Printer5PrintIJA10_cNSt7__cxx1112basic_stringIcSt11char_traitsIcESaIcEEEEEEvSt17basic_string_viewIcS8_EDpRKT_(ptr noundef nonnull align 8 dereferenceable(256) %printer, i64 94, ptr nonnull @.str.21, ptr noundef nonnull align 1 dereferenceable(10) @.str.7, ptr noundef nonnull align 8 dereferenceable(32) %ref.tmp)
          to label %invoke.cont unwind label %lpad

invoke.cont:                                      ; preds = %entry
  call void @_ZNSt7__cxx1112basic_stringIcSt11char_traitsIcESaIcEED1Ev(ptr noundef nonnull align 8 dereferenceable(32) %ref.tmp) #24
  ret void

lpad:                                             ; preds = %entry
  %2 = landingpad { ptr, i32 }
          cleanup
  call void @_ZNSt7__cxx1112basic_stringIcSt11char_traitsIcESaIcEED1Ev(ptr noundef nonnull align 8 dereferenceable(32) %ref.tmp) #24
  resume { ptr, i32 } %2
}